target datalayout = "e-m:e-p270:32:32-p271:32:32-p272:64:64-i64:64-i128:128-f80:128-n8:16:32:64-S128"
target triple = "x86_64-pc-linux-gnu"

%struct.H5Z_class2_t = type { i32, i32, i32, i32, ptr, ptr, ptr, ptr }
%struct.H5O_pline_t = type { %struct.H5O_shared_t, i32, i64, i64, ptr }
%struct.H5O_shared_t = type { i32, ptr, i32, %union.anon.1 }
%union.anon.1 = type { %struct.H5O_mesg_loc_t }
%struct.H5O_mesg_loc_t = type { i32, i64 }
%struct.H5Z_filter_info_t = type { i32, i32, [12 x i8], ptr, i64, [4 x i32], ptr }

@H5Z_table_g = internal global ptr null, align 8
@H5Z_table_used_g = internal global i64 0, align 8

; Function Attrs: nounwind uwtable
define i32 @H5Z_all_filters_avail(ptr noundef %0) #0 {
  %2 = alloca ptr, align 8
  %3 = alloca i64, align 8
  %4 = alloca i64, align 8
  %5 = alloca i32, align 4
  store ptr %0, ptr %2, align 8
  store i32 1, ptr %5, align 4
  store i64 0, ptr %3, align 8
  br label %6

6:                                                ; preds = %44, %1
  %7 = load i64, ptr %3, align 8
  %8 = load ptr, ptr %2, align 8
  %9 = getelementptr inbounds %struct.H5O_pline_t, ptr %8, i32 0, i32 3
  %10 = load i64, ptr %9, align 8
  %11 = icmp ult i64 %7, %10
  br i1 %11, label %12, label %47

12:                                               ; preds = %6
  store i64 0, ptr %4, align 8
  br label %13

13:                                               ; preds = %33, %12
  %14 = load i64, ptr %4, align 8
  %15 = load i64, ptr @H5Z_table_used_g, align 8
  %16 = icmp ult i64 %14, %15
  br i1 %16, label %17, label %36

17:                                               ; preds = %13
  %18 = load ptr, ptr @H5Z_table_g, align 8
  %19 = load i64, ptr %4, align 8
  %20 = getelementptr inbounds %struct.H5Z_class2_t, ptr %18, i64 %19
  %21 = getelementptr inbounds %struct.H5Z_class2_t, ptr %20, i32 0, i32 1
  %22 = load i32, ptr %21, align 4
  %23 = load ptr, ptr %2, align 8
  %24 = getelementptr inbounds %struct.H5O_pline_t, ptr %23, i32 0, i32 4
  %25 = load ptr, ptr %24, align 8
  %26 = load i64, ptr %3, align 8
  %27 = getelementptr inbounds %struct.H5Z_filter_info_t, ptr %25, i64 %26
  %28 = getelementptr inbounds %struct.H5Z_filter_info_t, ptr %27, i32 0, i32 0
  %29 = load i32, ptr %28, align 8
  %30 = icmp eq i32 %22, %29
  br i1 %30, label %31, label %32

31:                                               ; preds = %17
  br label %36

32:                                               ; preds = %17
  br label %33

33:                                               ; preds = %32
  %34 = load i64, ptr %4, align 8
  %35 = add i64 %34, 1
  store i64 %35, ptr %4, align 8
  br label %13

36:                                               ; preds = %31, %13
  %37 = load i64, ptr %4, align 8
  %38 = load i64, ptr @H5Z_table_used_g, align 8
  %39 = icmp eq i64 %37, %38
  br i1 %39, label %40, label %43

40:                                               ; preds = %36
  br label %41

41:                                               ; preds = %40
  store i32 0, ptr %5, align 4
  br label %48

42:                                               ; No predecessors!
  br label %43

43:                                               ; preds = %42, %36
  br label %44

44:                                               ; preds = %43
  %45 = load i64, ptr %3, align 8
  %46 = add i64 %45, 1
  store i64 %46, ptr %3, align 8
  br label %6

47:                                               ; preds = %6
  br label %48

48:                                               ; preds = %47, %41
  %49 = load i32, ptr %5, align 4
  ret i32 %49
}