; Function Attrs: nofree norecurse nosync nounwind memory(read, inaccessiblemem: none) uwtable
define range(i32 0, 2) i32 @H5Z_all_filters_avail(ptr nocapture noundef readonly %0) local_unnamed_addr #4 {
  %2 = getelementptr inbounds i8, ptr %0, i64 56
  %3 = load i64, ptr %2, align 8
  %.not = icmp eq i64 %3, 0
  br i1 %.not, label %._crit_edge17, label %.preheader.lr.ph

.preheader.lr.ph:                                 ; preds = %1
  %4 = load i64, ptr @H5Z_table_used_g, align 8
  %.not22 = icmp eq i64 %4, 0
  %5 = load ptr, ptr @H5Z_table_g, align 8
  br i1 %.not22, label %._crit_edge17, label %.preheader.lr.ph.split.us

.preheader.lr.ph.split.us:                        ; preds = %.preheader.lr.ph
  %6 = getelementptr inbounds i8, ptr %0, i64 64
  %7 = load ptr, ptr %6, align 8
  br label %.preheader.us

.preheader.us:                                    ; preds = %17, %.preheader.lr.ph.split.us
  %.01016.us = phi i64 [ 0, %.preheader.lr.ph.split.us ], [ %18, %17 ]
  %8 = getelementptr inbounds %struct.H5Z_filter_info_t, ptr %7, i64 %.01016.us
  %9 = load i32, ptr %8, align 8
  br label %10

10:                                               ; preds = %.preheader.us, %14
  %.0911.us = phi i64 [ 0, %.preheader.us ], [ %15, %14 ]
  %11 = getelementptr inbounds %struct.H5Z_class2_t, ptr %5, i64 %.0911.us, i32 1
  %12 = load i32, ptr %11, align 4
  %13 = icmp eq i32 %12, %9
  br i1 %13, label %._crit_edge.us, label %14

14:                                               ; preds = %10
  %15 = add nuw i64 %.0911.us, 1
  %exitcond.not = icmp eq i64 %15, %4
  br i1 %exitcond.not, label %._crit_edge17, label %10

._crit_edge.us:                                   ; preds = %10
  %16 = icmp eq i64 %.0911.us, %4
  br i1 %16, label %._crit_edge17, label %17

17:                                               ; preds = %._crit_edge.us
  %18 = add nuw i64 %.01016.us, 1
  %exitcond23.not = icmp eq i64 %18, %3
  br i1 %exitcond23.not, label %._crit_edge17, label %.preheader.us

._crit_edge17:                                    ; preds = %17, %._crit_edge.us, %14, %.preheader.lr.ph, %1
  %.0 = phi i32 [ 1, %1 ], [ 0, %.preheader.lr.ph ], [ 0, %14 ], [ 0, %._crit_edge.us ], [ 1, %17 ]
  ret i32 %.0
}